target datalayout = "e-m:e-p270:32:32-p271:32:32-p272:64:64-i64:64-i128:128-f80:128-n8:16:32:64-S128"
target triple = "x86_64-pc-linux-gnu"

%struct.nghttp2_stream = type { i32, %struct.nghttp2_pq_entry, i64, i64, i64, i64, ptr, ptr, ptr, i64, i32, i32, i32, i32, i32, i32, i32, i16, i32, i8, i8, i8, i8, i8, i8 }
%struct.nghttp2_pq_entry = type { i64 }

; Function Attrs: nounwind uwtable
define hidden void @nghttp2_stream_detach_item(ptr noundef %0) #0 {
  %2 = alloca ptr, align 8
  store ptr %0, ptr %2, align 8, !tbaa !3
  br label %3

3:                                                ; preds = %1
  br label %4

4:                                                ; preds = %3
  %5 = load ptr, ptr %2, align 8, !tbaa !3
  %6 = getelementptr inbounds nuw %struct.nghttp2_stream, ptr %5, i32 0, i32 8
  store ptr null, ptr %6, align 8, !tbaa !22
  %7 = load ptr, ptr %2, align 8, !tbaa !3
  %8 = getelementptr inbounds nuw %struct.nghttp2_stream, ptr %7, i32 0, i32 19
  %9 = load i8, ptr %8, align 4, !tbaa !18
  %10 = zext i8 %9 to i32
  %11 = and i32 %10, -13
  %12 = trunc i32 %11 to i8
  %13 = load ptr, ptr %2, align 8, !tbaa !3
  %14 = getelementptr inbounds nuw %struct.nghttp2_stream, ptr %13, i32 0, i32 19
  store i8 %12, ptr %14, align 4, !tbaa !18
  ret void
}