; Function Attrs: mustprogress nofree norecurse nosync nounwind willreturn memory(argmem: readwrite) uwtable
define hidden void @nghttp2_stream_detach_item(ptr noundef captures(none) initializes((64, 72)) %0) local_unnamed_addr #2 {
  %2 = getelementptr inbounds nuw i8, ptr %0, i64 64
  store ptr null, ptr %2, align 8, !tbaa !18
  %3 = getelementptr inbounds nuw i8, ptr %0, i64 116
  %4 = load i8, ptr %3, align 4, !tbaa !14
  %5 = and i8 %4, -13
  store i8 %5, ptr %3, align 4, !tbaa !14
  ret void
}